; Function Attrs: nounwind uwtable
define noundef i32 @TS_VERIFY_CTX_set0_imprint(ptr noundef captures(none) initializes((48, 52)) %0, ptr noundef %1, i64 noundef %2) local_unnamed_addr #0 {
  %4 = getelementptr inbounds nuw i8, ptr %0, i64 40
  %5 = load ptr, ptr %4, align 8, !tbaa !20
  tail call void @CRYPTO_free(ptr noundef %5, ptr noundef nonnull @.str, i32 noundef 109) #7
  store ptr %1, ptr %4, align 8, !tbaa !20
  %6 = trunc i64 %2 to i32
  %7 = getelementptr inbounds nuw i8, ptr %0, i64 48
  store i32 %6, ptr %7, align 8, !tbaa !25
  ret i32 1
}